; ModuleID = 'bench/proj/original/nell.cpp.ll'
source_filename = "bench/proj/original/nell.cpp.ll"
target datalayout = "e-m:e-p270:32:32-p271:32:32-p272:64:64-i64:64-i128:128-f80:128-n8:16:32:64-S128"
target triple = "x86_64-pc-linux-gnu"

@_ZL8des_nell = internal constant [16 x i8] c"Nell\0A\09PCyl, Sph\00", align 16
@pj_s_nell = hidden local_unnamed_addr constant ptr @_ZL8des_nell, align 8
@.str = private unnamed_addr constant [5 x i8] c"nell\00", align 1

; Function Attrs: mustprogress uwtable
define hidden noundef ptr @pj_nell(ptr noundef writeonly %0) local_unnamed_addr #0 {
  %.not = icmp eq ptr %0, null
  br i1 %.not, label %6, label %2

2:                                                ; preds = %1
  %3 = getelementptr inbounds i8, ptr %0, i64 216
  store double 0.000000e+00, ptr %3, align 8
  %4 = getelementptr inbounds i8, ptr %0, i64 112
  store ptr @_ZL14nell_s_inverse5PJ_XYP8PJconsts, ptr %4, align 8
  %5 = getelementptr inbounds i8, ptr %0, i64 104
  store ptr @_ZL14nell_s_forward5PJ_LPP8PJconsts, ptr %5, align 8
  br label %15

6:                                                ; preds = %1
  %7 = tail call noundef ptr @_Z6pj_newv()
  %8 = icmp eq ptr %7, null
  br i1 %8, label %15, label %9

9:                                                ; preds = %6
  %10 = getelementptr inbounds i8, ptr %7, i64 8
  store ptr @.str, ptr %10, align 8
  %11 = getelementptr inbounds i8, ptr %7, i64 16
  store ptr @_ZL8des_nell, ptr %11, align 8
  %12 = getelementptr inbounds i8, ptr %7, i64 360
  store i32 1, ptr %12, align 8
  %13 = getelementptr inbounds i8, ptr %7, i64 380
  store i32 4, ptr %13, align 4
  %14 = getelementptr inbounds i8, ptr %7, i64 384
  store i32 1, ptr %14, align 8
  br label %15

15:                                               ; preds = %6, %9, %2
  %.0 = phi ptr [ %0, %2 ], [ %7, %9 ], [ null, %6 ]
  ret ptr %.0
}

; Function Attrs: mustprogress nofree norecurse nosync nounwind willreturn memory(argmem: write) uwtable
define hidden noundef ptr @_Z33pj_projection_specific_setup_nellP8PJconsts(ptr noundef returned writeonly %0) local_unnamed_addr #1 {
  %2 = getelementptr inbounds i8, ptr %0, i64 216
  store double 0.000000e+00, ptr %2, align 8
  %3 = getelementptr inbounds i8, ptr %0, i64 112
  store ptr @_ZL14nell_s_inverse5PJ_XYP8PJconsts, ptr %3, align 8
  %4 = getelementptr inbounds i8, ptr %0, i64 104
  store ptr @_ZL14nell_s_forward5PJ_LPP8PJconsts, ptr %4, align 8
  ret ptr %0
}

declare noundef ptr @_Z6pj_newv() local_unnamed_addr #2

; Function Attrs: mustprogress uwtable
define internal { double, double } @_ZL14nell_s_inverse5PJ_XYP8PJconsts(double %0, double %1, ptr nocapture noundef readonly %2) #0 {
  %4 = fmul double %0, 2.000000e+00
  %5 = tail call double @cos(double noundef %1) #6
  %6 = fadd double %5, 1.000000e+00
  %7 = fdiv double %4, %6
  %8 = load ptr, ptr %2, align 8
  %9 = tail call double @sin(double noundef %1) #6
  %10 = fadd double %9, %1
  %11 = fmul double %10, 5.000000e-01
  %12 = tail call noundef double @_Z5aasinP6pj_ctxd(ptr noundef %8, double noundef %11)
  %.fca.0.insert = insertvalue { double, double } poison, double %7, 0
  %.fca.1.insert = insertvalue { double, double } %.fca.0.insert, double %12, 1
  ret { double, double } %.fca.1.insert
}

; Function Attrs: mustprogress nofree nounwind memory(write) uwtable
define internal { double, double } @_ZL14nell_s_forward5PJ_LPP8PJconsts(double %0, double %1, ptr nocapture readnone %2) #3 {
  %4 = tail call double @sin(double noundef %1) #6
  %5 = fmul double %4, 2.000000e+00
  %6 = fmul double %1, %1
  %7 = tail call double @llvm.fmuladd.f64(double %6, double -1.141200e-02, double -9.353820e-02)
  %8 = tail call double @llvm.fmuladd.f64(double %6, double %7, double 1.003710e+00)
  %9 = fmul double %8, %1
  br label %10

10:                                               ; preds = %10, %3
  %.sroa.2.017 = phi double [ %9, %3 ], [ %17, %10 ]
  %.016 = phi i32 [ 10, %3 ], [ %20, %10 ]
  %11 = tail call double @sin(double noundef %.sroa.2.017) #6
  %12 = fadd double %.sroa.2.017, %11
  %13 = fsub double %12, %5
  %14 = tail call double @cos(double noundef %.sroa.2.017) #6
  %15 = fadd double %14, 1.000000e+00
  %16 = fdiv double %13, %15
  %17 = fsub double %.sroa.2.017, %16
  %18 = tail call double @llvm.fabs.f64(double %16)
  %19 = fcmp olt double %18, 0x3E7AD7F29ABCAF48
  %20 = add nsw i32 %.016, -1
  %.not = icmp eq i32 %20, 0
  %or.cond = select i1 %19, i1 true, i1 %.not
  br i1 %or.cond, label %21, label %10, !llvm.loop !4

21:                                               ; preds = %10
  %22 = fmul double %0, 5.000000e-01
  %23 = tail call double @cos(double noundef %17) #6
  %24 = fadd double %23, 1.000000e+00
  %25 = fmul double %22, %24
  %.fca.0.insert = insertvalue { double, double } poison, double %25, 0
  %.fca.1.insert = insertvalue { double, double } %.fca.0.insert, double %17, 1
  ret { double, double } %.fca.1.insert
}

; Function Attrs: mustprogress nofree nounwind willreturn memory(write)
declare double @cos(double noundef) local_unnamed_addr #4

declare noundef double @_Z5aasinP6pj_ctxd(ptr noundef, double noundef) local_unnamed_addr #2

; Function Attrs: mustprogress nofree nounwind willreturn memory(write)
declare double @sin(double noundef) local_unnamed_addr #4

; Function Attrs: mustprogress nocallback nofree nosync nounwind speculatable willreturn memory(none)
declare double @llvm.fmuladd.f64(double, double, double) #5

; Function Attrs: mustprogress nocallback nofree nosync nounwind speculatable willreturn memory(none)
declare double @llvm.fabs.f64(double) #5


!llvm.module.flags = !{!0, !1, !2, !3}

!0 = !{i32 1, !"wchar_size", i32 4}
!1 = !{i32 8, !"PIC Level", i32 2}
!2 = !{i32 7, !"uwtable", i32 2}
!3 = !{i32 7, !"frame-pointer", i32 2}
!4 = distinct !{!4, !5}
!5 = !{!"llvm.loop.mustprogress"}
